ccopy_reg
_reconstructor
p1
(csklearn.linear_model.base
LinearRegression
p2
c__builtin__
object
p3
NtRp4
(dp5
S'normalize'
p6
I00
sS'n_jobs'
p7
I1
sS'rank_'
p8
I4
sS'fit_intercept'
p9
I01
sS'_residues'
p10
cnumpy.core.multiarray
scalar
p11
(cnumpy
dtype
p12
(S'f8'
I0
I1
tRp13
(I3
S'<'
NNNI-1
I-1
I0
tbS'\xb9\xab:@\xd7\xc5\x0cA'
tRp14
sS'coef_'
p15
cnumpy.core.multiarray
_reconstruct
p16
(cnumpy
ndarray
p17
(I0
tS'b'
tRp18
(I1
(I4
tg13
I00
S'fXp\xe0\x03iS@\x82\x0b\x93LX\x1f\x06@o\xbaa\xd7K\xe9\xca\xbfgC}1/\xcf\t\xc0'
tbsS'copy_X'
p19
I01
sS'intercept_'
p20
g11
(g13
S'K_4Un\xf4\x82@'
tRp21
sS'singular_'
p22
g16
(g17
(I0
tS'b'
tRp23
(I1
(I4
tg13
I00
S".\xe6\xaf\xd8'\xdb9@\x89X\x89\xdf\x06\x0c4@\x1b\n\x869\xa5\x822@~U\x19\x18\x1b\xb4&@"
tbsb.